target datalayout = "e-m:e-p270:32:32-p271:32:32-p272:64:64-i64:64-i128:128-f80:128-n8:16:32:64-S128"
target triple = "x86_64-pc-linux-gnu"

%struct.AVFilterLink = type { ptr, ptr, ptr, ptr, i32, i32, i32, i32, %struct.AVRational, i32, i32, i32, %struct.AVChannelLayout, %struct.AVRational, ptr, i32, %struct.AVFilterFormatsConfig, %struct.AVFilterFormatsConfig }
%struct.AVChannelLayout = type { i32, i32, %union.anon.1, ptr }
%union.anon.1 = type { i64 }
%struct.AVRational = type { i32, i32 }
%struct.AVFilterFormatsConfig = type { ptr, ptr, ptr, ptr, ptr }
%struct.AVFilterContext = type { ptr, ptr, ptr, ptr, ptr, i32, ptr, ptr, i32, ptr, ptr, i32, i32, ptr, ptr, ptr, ptr, i32, ptr, i32, i32 }
%struct.ColorTemperatureContext = type { ptr, float, float, float, [3 x float], i32, i32, [4 x i8], ptr }
%struct.AVFrame = type { [8 x ptr], [8 x i32], ptr, i32, i32, i32, i32, i32, %struct.AVRational, i64, i64, %struct.AVRational, i32, ptr, i32, i32, [8 x ptr], ptr, i32, ptr, i32, i32, i32, i32, i32, i32, i32, i64, ptr, i32, ptr, ptr, i64, i64, i64, i64, ptr, %struct.AVChannelLayout, i64 }

; Function Attrs: alwaysinline nounwind willreturn memory(none) uwtable
define internal float @av_clipf_c(float noundef %0, float noundef %1, float noundef %2) #6 {
  %4 = alloca float, align 4
  %5 = alloca float, align 4
  %6 = alloca float, align 4
  store float %0, ptr %4, align 4, !tbaa !58
  store float %1, ptr %5, align 4, !tbaa !58
  store float %2, ptr %6, align 4, !tbaa !58
  %7 = load float, ptr %4, align 4, !tbaa !58
  %8 = load float, ptr %5, align 4, !tbaa !58
  %9 = fcmp nsz ogt float %7, %8
  br i1 %9, label %10, label %12

10:                                               ; preds = %3
  %11 = load float, ptr %4, align 4, !tbaa !58
  br label %14

12:                                               ; preds = %3
  %13 = load float, ptr %5, align 4, !tbaa !58
  br label %14

14:                                               ; preds = %12, %10
  %15 = phi nsz float [ %11, %10 ], [ %13, %12 ]
  %16 = load float, ptr %6, align 4, !tbaa !58
  %17 = fcmp nsz ogt float %15, %16
  br i1 %17, label %18, label %20

18:                                               ; preds = %14
  %19 = load float, ptr %6, align 4, !tbaa !58
  br label %30

20:                                               ; preds = %14
  %21 = load float, ptr %4, align 4, !tbaa !58
  %22 = load float, ptr %5, align 4, !tbaa !58
  %23 = fcmp nsz ogt float %21, %22
  br i1 %23, label %24, label %26

24:                                               ; preds = %20
  %25 = load float, ptr %4, align 4, !tbaa !58
  br label %28

26:                                               ; preds = %20
  %27 = load float, ptr %5, align 4, !tbaa !58
  br label %28

28:                                               ; preds = %26, %24
  %29 = phi nsz float [ %25, %24 ], [ %27, %26 ]
  br label %30

30:                                               ; preds = %28, %18
  %31 = phi nsz float [ %19, %18 ], [ %29, %28 ]
  ret float %31
}

; Function Attrs: nounwind uwtable
define internal float @saturate(float noundef %0) #1 {
  %2 = alloca float, align 4
  store float %0, ptr %2, align 4, !tbaa !58
  %3 = load float, ptr %2, align 4, !tbaa !58
  %4 = call nsz float @av_clipf_c(float noundef %3, float noundef 0.000000e+00, float noundef 1.000000e+00) #9
  ret float %4
}

; Function Attrs: nounwind uwtable
define internal void @kelvin2rgb(float noundef %0, ptr noundef %1) #1 {
  %3 = alloca float, align 4
  %4 = alloca ptr, align 8
  %5 = alloca float, align 4
  %6 = alloca float, align 4
  store float %0, ptr %3, align 4, !tbaa !58
  store ptr %1, ptr %4, align 8, !tbaa !59
  call void @llvm.lifetime.start.p0(i64 4, ptr %5) #7
  %7 = load float, ptr %3, align 4, !tbaa !58
  %8 = fdiv nsz float %7, 1.000000e+02
  store float %8, ptr %5, align 4, !tbaa !58
  %9 = load float, ptr %5, align 4, !tbaa !58
  %10 = fcmp nsz ole float %9, 6.600000e+01
  br i1 %10, label %11, label %20

11:                                               ; preds = %2
  %12 = load ptr, ptr %4, align 8, !tbaa !59
  %13 = getelementptr inbounds float, ptr %12, i64 0
  store float 1.000000e+00, ptr %13, align 4, !tbaa !58
  %14 = load float, ptr %5, align 4, !tbaa !58
  %15 = call nsz float @llvm.log.f32(float %14)
  %16 = call nsz float @llvm.fmuladd.f32(float 0x3FD8F718C0000000, float %15, float 0xBFE4380B80000000)
  %17 = call nsz float @saturate(float noundef %16)
  %18 = load ptr, ptr %4, align 8, !tbaa !59
  %19 = getelementptr inbounds float, ptr %18, i64 1
  store float %17, ptr %19, align 4, !tbaa !58
  br label %36

20:                                               ; preds = %2
  call void @llvm.lifetime.start.p0(i64 4, ptr %6) #7
  %21 = load float, ptr %5, align 4, !tbaa !58
  %22 = fsub nsz float %21, 6.000000e+01
  %23 = call nsz float @llvm.maxnum.f32(float %22, float 0.000000e+00)
  store float %23, ptr %6, align 4, !tbaa !58
  %24 = load float, ptr %6, align 4, !tbaa !58
  %25 = call nsz float @llvm.pow.f32(float %24, float 0xBFC10CDA80000000)
  %26 = fmul nsz float 0x3FF4AFDDE0000000, %25
  %27 = call nsz float @saturate(float noundef %26)
  %28 = load ptr, ptr %4, align 8, !tbaa !59
  %29 = getelementptr inbounds float, ptr %28, i64 0
  store float %27, ptr %29, align 4, !tbaa !58
  %30 = load float, ptr %6, align 4, !tbaa !58
  %31 = call nsz float @llvm.pow.f32(float %30, float 0xBFB354F0E0000000)
  %32 = fmul nsz float 0x3FF2140880000000, %31
  %33 = call nsz float @saturate(float noundef %32)
  %34 = load ptr, ptr %4, align 8, !tbaa !59
  %35 = getelementptr inbounds float, ptr %34, i64 1
  store float %33, ptr %35, align 4, !tbaa !58
  call void @llvm.lifetime.end.p0(i64 4, ptr %6) #7
  br label %36

36:                                               ; preds = %20, %11
  %37 = load float, ptr %5, align 4, !tbaa !58
  %38 = fcmp nsz oge float %37, 6.600000e+01
  br i1 %38, label %39, label %42

39:                                               ; preds = %36
  %40 = load ptr, ptr %4, align 8, !tbaa !59
  %41 = getelementptr inbounds float, ptr %40, i64 2
  store float 1.000000e+00, ptr %41, align 4, !tbaa !58
  br label %57

42:                                               ; preds = %36
  %43 = load float, ptr %5, align 4, !tbaa !58
  %44 = fcmp nsz ole float %43, 1.900000e+01
  br i1 %44, label %45, label %48

45:                                               ; preds = %42
  %46 = load ptr, ptr %4, align 8, !tbaa !59
  %47 = getelementptr inbounds float, ptr %46, i64 2
  store float 0.000000e+00, ptr %47, align 4, !tbaa !58
  br label %56

48:                                               ; preds = %42
  %49 = load float, ptr %5, align 4, !tbaa !58
  %50 = fsub nsz float %49, 1.000000e+01
  %51 = call nsz float @llvm.log.f32(float %50)
  %52 = call nsz float @llvm.fmuladd.f32(float 0x3FE161F340000000, float %51, float 0xBFF323DB60000000)
  %53 = call nsz float @saturate(float noundef %52)
  %54 = load ptr, ptr %4, align 8, !tbaa !59
  %55 = getelementptr inbounds float, ptr %54, i64 2
  store float %53, ptr %55, align 4, !tbaa !58
  br label %56

56:                                               ; preds = %48, %45
  br label %57

57:                                               ; preds = %56, %39
  call void @llvm.lifetime.end.p0(i64 4, ptr %5) #7
  ret void
}

; Function Attrs: nounwind uwtable
define internal i32 @filter_frame(ptr noundef %0, ptr noundef %1) #1 {
  %3 = alloca ptr, align 8
  %4 = alloca ptr, align 8
  %5 = alloca ptr, align 8
  %6 = alloca ptr, align 8
  store ptr %0, ptr %3, align 8, !tbaa !4
  store ptr %1, ptr %4, align 8, !tbaa !9
  call void @llvm.lifetime.start.p0(i64 8, ptr %5) #7
  %7 = load ptr, ptr %3, align 8, !tbaa !4
  %8 = getelementptr inbounds nuw %struct.AVFilterLink, ptr %7, i32 0, i32 2
  %9 = load ptr, ptr %8, align 8, !tbaa !11
  store ptr %9, ptr %5, align 8, !tbaa !23
  call void @llvm.lifetime.start.p0(i64 8, ptr %6) #7
  %10 = load ptr, ptr %5, align 8, !tbaa !23
  %11 = getelementptr inbounds nuw %struct.AVFilterContext, ptr %10, i32 0, i32 9
  %12 = load ptr, ptr %11, align 8, !tbaa !24
  store ptr %12, ptr %6, align 8, !tbaa !34
  %13 = load ptr, ptr %6, align 8, !tbaa !34
  %14 = getelementptr inbounds nuw %struct.ColorTemperatureContext, ptr %13, i32 0, i32 1
  %15 = load float, ptr %14, align 8, !tbaa !36
  %16 = load ptr, ptr %6, align 8, !tbaa !34
  %17 = getelementptr inbounds nuw %struct.ColorTemperatureContext, ptr %16, i32 0, i32 4
  %18 = getelementptr inbounds [3 x float], ptr %17, i64 0, i64 0
  call void @kelvin2rgb(float noundef %15, ptr noundef %18)
  %19 = load ptr, ptr %5, align 8, !tbaa !23
  %20 = load ptr, ptr %6, align 8, !tbaa !34
  %21 = getelementptr inbounds nuw %struct.ColorTemperatureContext, ptr %20, i32 0, i32 8
  %22 = load ptr, ptr %21, align 8, !tbaa !39
  %23 = load ptr, ptr %4, align 8, !tbaa !9
  %24 = load ptr, ptr %4, align 8, !tbaa !9
  %25 = getelementptr inbounds nuw %struct.AVFrame, ptr %24, i32 0, i32 4
  %26 = load i32, ptr %25, align 4, !tbaa !40
  %27 = load ptr, ptr %5, align 8, !tbaa !23
  %28 = call i32 @ff_filter_get_nb_threads(ptr noundef %27) #8
  %29 = icmp sgt i32 %26, %28
  br i1 %29, label %30, label %33

30:                                               ; preds = %2
  %31 = load ptr, ptr %5, align 8, !tbaa !23
  %32 = call i32 @ff_filter_get_nb_threads(ptr noundef %31) #8
  br label %37

33:                                               ; preds = %2
  %34 = load ptr, ptr %4, align 8, !tbaa !9
  %35 = getelementptr inbounds nuw %struct.AVFrame, ptr %34, i32 0, i32 4
  %36 = load i32, ptr %35, align 4, !tbaa !40
  br label %37

37:                                               ; preds = %33, %30
  %38 = phi i32 [ %32, %30 ], [ %36, %33 ]
  %39 = call i32 @ff_filter_execute(ptr noundef %19, ptr noundef %22, ptr noundef %23, ptr noundef null, i32 noundef %38)
  %40 = load ptr, ptr %5, align 8, !tbaa !23
  %41 = getelementptr inbounds nuw %struct.AVFilterContext, ptr %40, i32 0, i32 7
  %42 = load ptr, ptr %41, align 8, !tbaa !46
  %43 = getelementptr inbounds ptr, ptr %42, i64 0
  %44 = load ptr, ptr %43, align 8, !tbaa !4
  %45 = load ptr, ptr %4, align 8, !tbaa !9
  %46 = call i32 @ff_filter_frame(ptr noundef %44, ptr noundef %45)
  call void @llvm.lifetime.end.p0(i64 8, ptr %6) #7
  call void @llvm.lifetime.end.p0(i64 8, ptr %5) #7
  ret i32 %46
}