; Function Attrs: nounwind uwtable
define internal i32 @filter_frame(ptr noundef readonly captures(none) %0, ptr noundef %1) #1 {
  %3 = getelementptr inbounds nuw i8, ptr %0, i64 16
  %4 = load ptr, ptr %3, align 8, !tbaa !4
  %5 = getelementptr inbounds nuw i8, ptr %4, i64 72
  %6 = load ptr, ptr %5, align 8, !tbaa !19
  %7 = getelementptr inbounds nuw i8, ptr %6, i64 8
  %8 = load float, ptr %7, align 8, !tbaa !29
  %9 = getelementptr inbounds nuw i8, ptr %6, i64 20
  %10 = fdiv nsz float %8, 1.000000e+02
  %11 = fcmp nsz ugt float %10, 6.600000e+01
  br i1 %11, label %15, label %12

12:                                               ; preds = %2
  %13 = tail call nsz float @llvm.log.f32(float %10)
  %14 = tail call nsz float @llvm.fmuladd.f32(float %13, float 0x3FD8F718C0000000, float 0xBFE4380B80000000)
  br label %25

15:                                               ; preds = %2
  %16 = fadd nsz float %10, -6.000000e+01
  %17 = tail call nsz float @llvm.maxnum.f32(float %16, float 0.000000e+00)
  %18 = tail call nsz float @llvm.pow.f32(float %17, float 0xBFC10CDA80000000)
  %19 = fmul nsz float %18, 0x3FF4AFDDE0000000
  %20 = fcmp nsz ogt float %19, 0.000000e+00
  %21 = select nsz i1 %20, float %19, float 0.000000e+00
  %22 = fcmp nsz ogt float %21, 1.000000e+00
  %..i.i16.i = select nsz i1 %22, float 1.000000e+00, float %21
  %23 = tail call nsz float @llvm.pow.f32(float %17, float 0xBFB354F0E0000000)
  %24 = fmul nsz float %23, 0x3FF2140880000000
  br label %25

25:                                               ; preds = %15, %12
  %.sink24.i = phi float [ %24, %15 ], [ %14, %12 ]
  %.sink.i = phi float [ %..i.i16.i, %15 ], [ 1.000000e+00, %12 ]
  %26 = fcmp nsz ogt float %.sink24.i, 0.000000e+00
  %27 = select nsz i1 %26, float %.sink24.i, float 0.000000e+00
  %28 = fcmp nsz ogt float %27, 1.000000e+00
  %..i.i17.i = select nsz i1 %28, float 1.000000e+00, float %27
  store float %.sink.i, ptr %9, align 4, !tbaa !32
  %29 = getelementptr inbounds nuw i8, ptr %6, i64 24
  store float %..i.i17.i, ptr %29, align 4, !tbaa !32
  %30 = fcmp nsz ult float %10, 6.600000e+01
  br i1 %30, label %31, label %kelvin2rgb.exit

31:                                               ; preds = %25
  %32 = fcmp nsz ugt float %10, 1.900000e+01
  br i1 %32, label %33, label %kelvin2rgb.exit

33:                                               ; preds = %31
  %34 = fadd nsz float %10, -1.000000e+01
  %35 = tail call nsz float @llvm.log.f32(float %34)
  %36 = tail call nsz float @llvm.fmuladd.f32(float %35, float 0x3FE161F340000000, float 0xBFF323DB60000000)
  %37 = fcmp nsz ogt float %36, 0.000000e+00
  %38 = select nsz i1 %37, float %36, float 0.000000e+00
  %39 = fcmp nsz ogt float %38, 1.000000e+00
  %..i.i18.i = select nsz i1 %39, float 1.000000e+00, float %38
  br label %kelvin2rgb.exit

kelvin2rgb.exit:                                  ; preds = %25, %31, %33
  %.sink25.i = phi float [ %..i.i18.i, %33 ], [ 1.000000e+00, %25 ], [ 0.000000e+00, %31 ]
  %40 = getelementptr inbounds nuw i8, ptr %6, i64 28
  store float %.sink25.i, ptr %40, align 4, !tbaa !32
  %41 = getelementptr inbounds nuw i8, ptr %6, i64 48
  %42 = load ptr, ptr %41, align 8, !tbaa !33
  %43 = getelementptr inbounds nuw i8, ptr %1, i64 108
  %44 = load i32, ptr %43, align 4, !tbaa !34
  %45 = tail call i32 @ff_filter_get_nb_threads(ptr noundef nonnull %4) #7
  %. = tail call i32 @llvm.smin.i32(i32 %44, i32 %45)
  %46 = tail call i32 @ff_filter_execute(ptr noundef nonnull %4, ptr noundef %42, ptr noundef %1, ptr noundef null, i32 noundef %.) #8
  %47 = getelementptr inbounds nuw i8, ptr %4, i64 56
  %48 = load ptr, ptr %47, align 8, !tbaa !40
  %49 = load ptr, ptr %48, align 8, !tbaa !41
  %50 = tail call i32 @ff_filter_frame(ptr noundef %49, ptr noundef %1) #8
  ret i32 %50
}